; Function Attrs: mustprogress nounwind uwtable
define dso_local noundef nonnull align 8 dereferenceable(48) ptr @_ZN4llvm6objectlsERNS_11raw_ostreamERKNS0_16SectionedAddressE(ptr noundef nonnull align 8 dereferenceable(48) %0, ptr noundef nonnull readonly align 8 captures(none) dereferenceable(16) %1) local_unnamed_addr #0 {
  %3 = alloca %"class.llvm::FormattedNumber", align 8
  %4 = getelementptr inbounds nuw i8, ptr %0, i64 24
  %5 = load ptr, ptr %4, align 8
  %6 = getelementptr inbounds nuw i8, ptr %0, i64 32
  %7 = load ptr, ptr %6, align 8
  %8 = ptrtoint ptr %5 to i64
  %9 = ptrtoint ptr %7 to i64
  %10 = sub i64 %8, %9
  %11 = icmp ult i64 %10, 17
  br i1 %11, label %12, label %14

12:                                               ; preds = %2
  %13 = tail call noundef nonnull align 8 dereferenceable(48) ptr @_ZN4llvm11raw_ostream5writeEPKcm(ptr noundef nonnull align 8 dereferenceable(48) %0, ptr noundef nonnull @.str, i64 noundef 17) #16
  br label %_ZN4llvm11raw_ostreamlsEPKc.exit

14:                                               ; preds = %2
  tail call void @llvm.memcpy.p0.p0.i64(ptr noundef nonnull align 1 dereferenceable(17) %7, ptr noundef nonnull align 1 dereferenceable(17) @.str, i64 17, i1 false)
  %15 = load ptr, ptr %6, align 8
  %16 = getelementptr inbounds nuw i8, ptr %15, i64 17
  store ptr %16, ptr %6, align 8
  br label %_ZN4llvm11raw_ostreamlsEPKc.exit

_ZN4llvm11raw_ostreamlsEPKc.exit:                 ; preds = %12, %14
  %.0.i.i = phi ptr [ %13, %12 ], [ %0, %14 ]
  %17 = load i64, ptr %1, align 8
  store i64 %17, ptr %3, align 8, !alias.scope !4
  %18 = getelementptr inbounds nuw i8, ptr %3, i64 8
  store i64 0, ptr %18, align 8, !alias.scope !4
  %19 = getelementptr inbounds nuw i8, ptr %3, i64 16
  store i32 10, ptr %19, align 8, !alias.scope !4
  %20 = getelementptr inbounds nuw i8, ptr %3, i64 20
  store i8 1, ptr %20, align 4, !alias.scope !4
  %21 = getelementptr inbounds nuw i8, ptr %3, i64 21
  store i8 0, ptr %21, align 1, !alias.scope !4
  %22 = getelementptr inbounds nuw i8, ptr %3, i64 22
  store i8 1, ptr %22, align 2, !alias.scope !4
  %23 = call noundef nonnull align 8 dereferenceable(48) ptr @_ZN4llvm11raw_ostreamlsERKNS_15FormattedNumberE(ptr noundef nonnull align 8 dereferenceable(48) %.0.i.i, ptr noundef nonnull align 8 dereferenceable(23) %3) #16
  %24 = getelementptr inbounds nuw i8, ptr %1, i64 8
  %25 = load i64, ptr %24, align 8
  %.not = icmp eq i64 %25, -1
  br i1 %.not, label %40, label %26

26:                                               ; preds = %_ZN4llvm11raw_ostreamlsEPKc.exit
  %27 = load ptr, ptr %4, align 8
  %28 = load ptr, ptr %6, align 8
  %29 = ptrtoint ptr %27 to i64
  %30 = ptrtoint ptr %28 to i64
  %31 = sub i64 %29, %30
  %32 = icmp ult i64 %31, 2
  br i1 %32, label %33, label %35

33:                                               ; preds = %26
  %34 = call noundef nonnull align 8 dereferenceable(48) ptr @_ZN4llvm11raw_ostream5writeEPKcm(ptr noundef nonnull align 8 dereferenceable(48) %0, ptr noundef nonnull @.str.1, i64 noundef 2) #16
  br label %_ZN4llvm11raw_ostreamlsEPKc.exit8

35:                                               ; preds = %26
  store i16 8236, ptr %28, align 1
  %36 = load ptr, ptr %6, align 8
  %37 = getelementptr inbounds nuw i8, ptr %36, i64 2
  store ptr %37, ptr %6, align 8
  br label %_ZN4llvm11raw_ostreamlsEPKc.exit8

_ZN4llvm11raw_ostreamlsEPKc.exit8:                ; preds = %33, %35
  %.0.i.i7 = phi ptr [ %34, %33 ], [ %0, %35 ]
  %38 = load i64, ptr %24, align 8
  %39 = call noundef nonnull align 8 dereferenceable(48) ptr @_ZN4llvm11raw_ostreamlsEm(ptr noundef nonnull align 8 dereferenceable(48) %.0.i.i7, i64 noundef %38) #16
  br label %40

40:                                               ; preds = %_ZN4llvm11raw_ostreamlsEPKc.exit8, %_ZN4llvm11raw_ostreamlsEPKc.exit
  %41 = load ptr, ptr %4, align 8
  %42 = load ptr, ptr %6, align 8
  %43 = icmp eq ptr %41, %42
  br i1 %43, label %44, label %46

44:                                               ; preds = %40
  %45 = call noundef nonnull align 8 dereferenceable(48) ptr @_ZN4llvm11raw_ostream5writeEPKcm(ptr noundef nonnull align 8 dereferenceable(48) %0, ptr noundef nonnull @.str.2, i64 noundef 1) #16
  br label %_ZN4llvm11raw_ostreamlsEPKc.exit11

46:                                               ; preds = %40
  store i8 125, ptr %42, align 1
  %47 = load ptr, ptr %6, align 8
  %48 = getelementptr inbounds nuw i8, ptr %47, i64 1
  store ptr %48, ptr %6, align 8
  br label %_ZN4llvm11raw_ostreamlsEPKc.exit11

_ZN4llvm11raw_ostreamlsEPKc.exit11:               ; preds = %44, %46
  %.0.i.i10 = phi ptr [ %45, %44 ], [ %0, %46 ]
  ret ptr %.0.i.i10
}